(dp0
S'Science Fiction'
p1
c__builtin__
set
p2
((lp3
I40961
aI2
aI3
aI40964
aI8199
aI40968
aI40969
aI40970
aI32780
aI49165
aI36867
aI28698
aI40991
aI40992
aI32801
aI35
aI36
aI20519
aI20869
aI32820
aI32825
aI32827
aI32828
aI22538
aI62
aI64
aI32833
aI41027
aI68
aI41029
aI20551
aI72
aI20553
aI32847
aI83
aI41049
aI28767
aI96
aI97
aI41062
aI41064
aI32890
aI123
aI41084
aI126
aI24707
aI32903
aI32905
aI32906
aI139
aI24721
aI24723
aI149
aI159
aI28832
aI164
aI51834
aI20649
aI24749
aI24750
aI20659
aI32953
aI22559
aI51232
aI40993
aI201
aI24779
aI28883
aI24791
aI24792
aI28892
aI28893
aI28894
aI20707
aI27013
aI51240
aI20726
aI20727
aI33016
aI28922
aI32127
aI28924
aI20739
aI28933
aI19513
aI28953
aI28954
aI30767
aI285
aI24864
aI24865
aI23942
aI24870
aI20782
aI28976
aI20788
aI49462
aI20796
aI24152
aI24913
aI42254
aI29019
aI24927
aI24928
aI29027
aI20838
aI49511
aI29038
aI369
aI49525
aI29046
aI20856
aI20857
aI20859
aI29053
aI24958
aI32832
aI29059
aI29060
aI24965
aI24966
aI24973
aI24975
aI24977
aI51268
aI20898
aI41714
aI51531
aI20919
aI20920
aI29118
aI25024
aI25028
aI456
aI25035
aI29132
aI29133
aI12750
aI29135
aI29138
aI29139
aI29140
aI29142
aI29146
aI25051
aI29149
aI8673
aI25061
aI29159
aI29160
aI8681
aI25067
aI29437
aI29168
aI29170
aI49651
aI51436
aI25078
aI29177
aI20988
aI29181
aI25086
aI29190
aI29193
aI29194
aI29195
aI29196
aI29198
aI51288
aI29202
aI29204
aI29205
aI29206
aI29209
aI49693
aI8735
aI545
aI551
aI552
aI553
aI29240
aI29242
aI21051
aI30816
aI29255
aI37448
aI25166
aI29271
aI29272
aI41562
aI604
aI605
aI49762
aI29283
aI21092
aI12901
aI21094
aI49767
aI29290
aI29293
aI624
aI29298
aI29299
aI29303
aI29308
aI29309
aI29310
aI17026
aI17027
aI17028
aI17029
aI17030
aI29321
aI29322
aI29326
aI29328
aI49809
aI25234
aI41622
aI41624
aI41627
aI49826
aI41637
aI29353
aI29354
aI29355
aI29356
aI49838
aI41651
aI21279
aI29384
aI29389
aI29390
aI25295
aI32076
aI29401
aI30303
aI32207
aI29408
aI29410
aI29416
aI49897
aI29418
aI29421
aI17138
aI52009
aI29432
aI765
aI29445
aI29446
aI775
aI29448
aI29455
aI29457
aI29458
aI37653
aI29466
aI29471
aI29475
aI29487
aI29488
aI29492
aI26761
aI4920
aI29503
aI29504
aI29509
aI24035
aI29525
aI25438
aI29535
aI9056
aI29542
aI33642
aI29548
aI4994
aI29578
aI29579
aI50063
aI29599
aI29601
aI29607
aI29614
aI41905
aI29618
aI29619
aI29620
aI50103
aI29625
aI29632
aI29643
aI25550
aI50133
aI50138
aI29662
aI25567
aI19964
aI9194
aI29680
aI17394
aI1013
aI41981
aI33790
aI29698
aI29702
aI29717
aI29720
aI25627
aI25628
aI25629
aI29727
aI1059
aI21541
aI29735
aI25644
aI29742
aI33839
aI33842
aI29749
aI29750
aI33850
aI9055
aI33854
aI21568
aI29768
aI29771
aI21582
aI33871
aI27491
aI25684
aI29789
aI29790
aI29791
aI29793
aI29794
aI50022
aI13423
aI25713
aI50290
aI48866
aI21627
aI29822
aI42111
aI1153
aI21638
aI29832
aI33644
aI33934
aI21647
aI29848
aI18861
aI50332
aI21670
aI25776
aI33969
aI29876
aI29882
aI29889
aI42182
aI42183
aI29897
aI42188
aI29908
aI29910
aI29919
aI42209
aI1250
aI50406
aI29931
aI29936
aI42227
aI1268
aI29947
aI29948
aI29954
aI42243
aI25862
aI50441
aI29962
aI29963
aI29965
aI29966
aI50449
aI42259
aI30322
aI21782
aI29975
aI29976
aI32303
aI29987
aI29989
aI29990
aI29994
aI1329
aI30002
aI30004
aI28550
aI30010
aI19338
aI30014
aI30015
aI30019
aI1353
aI24119
aI30029
aI30034
aI30035
aI24121
aI30044
aI30045
aI30062
aI30063
aI21873
aI30189
aI50561
aI51435
aI30086
aI21897
aI38287
aI13716
aI50585
aI26010
aI1607
aI30124
aI30140
aI50622
aI46534
aI46535
aI17870
aI20728
aI26066
aI26190
aI30166
aI30170
aI30177
aI21988
aI51129
aI50668
aI26093
aI30199
aI50682
aI26109
aI42196
aI22102
aI30214
aI50702
aI13841
aI46615
aI46616
aI50713
aI30234
aI26140
aI50719
aI30240
aI30242
aI17958
aI30251
aI30252
aI30255
aI50736
aI30259
aI26206
aI26168
aI22073
aI30267
aI26174
aI50753
aI5699
aI26180
aI5703
aI30283
aI50766
aI26191
aI30288
aI50774
aI26205
aI22110
aI50783
aI30304
aI30305
aI30307
aI30308
aI30311
aI50796
aI50800
aI50802
aI22132
aI30329
aI30330
aI30334
aI30337
aI30338
aI50819
aI9862
aI50826
aI50827
aI30348
aI30353
aI50834
aI50835
aI30361
aI50842
aI22171
aI50844
aI51482
aI50847
aI50848
aI30371
aI42664
aI30379
aI30380
aI30381
aI30382
aI30383
aI30386
aI50868
aI50869
aI50872
aI18105
aI50876
aI50877
aI30398
aI30399
aI17355
aI50884
aI30405
aI22216
aI50889
aI22218
aI50892
aI50893
aI1743
aI30416
aI22226
aI22227
aI50904
aI18137
aI18139
aI26332
aI26917
aI30434
aI30437
aI30438
aI18151
aI50921
aI50923
aI50924
aI50928
aI30452
aI30454
aI50935
aI50936
aI30458
aI18172
aI23509
aI50945
aI50948
aI30474
aI30475
aI30476
aI50818
aI50959
aI10002
aI30339
aI50969
aI50971
aI22301
aI30497
aI50980
aI50981
aI50988
aI50989
aI18224
aI50998
aI50999
aI22332
aI22154
aI51008
aI51009
aI22338
aI30532
aI22342
aI22346
aI5965
aI51027
aI51028
aI18261
aI51035
aI51037
aI28705
aI51046
aI51047
aI51050
aI51053
aI19158
aI31038
aI30583
aI51072
aI51074
aI51075
aI51081
aI51082
aI51091
aI51092
aI42901
aI26521
aI22426
aI23535
aI51101
aI51102
aI42914
aI18342
aI26536
aI18346
aI51115
aI30637
aI51121
aI51122
aI51125
aI51126
aI18361
aI51132
aI22462
aI51136
aI22176
aI22466
aI22467
aI22470
aI26569
aI51148
aI51150
aI26957
aI51152
aI51153
aI30679
aI3748
aI51167
aI51168
aI51170
aI30691
aI16721
aI42987
aI22512
aI51185
aI51193
aI51194
aI30715
aI22524
aI22526
aI18431
aI51201
aI51202
aI51203
aI31062
aI30728
aI51210
aI22540
aI22541
aI22544
aI22545
aI22549
aI30742
aI18458
aI50863
aI18460
aI43038
aI51231
aI22560
aI51233
aI51234
aI21510
aI43046
aI43048
aI51241
aI30764
aI51247
aI51249
aI30770
aI22579
aI51255
aI51256
aI51257
aI51258
aI18492
aI22589
aI22590
aI51267
aI22596
aI22597
aI51273
aI51274
aI30796
aI22882
aI51286
aI18520
aI20154
aI51295
aI51296
aI51297
aI22629
aI51304
aI51305
aI30828
aI51310
aI51311
aI30832
aI30833
aI26741
aI26743
aI51320
aI51321
aI26751
aI51330
aI51331
aI51335
aI51336
aI51337
aI51342
aI22893
aI51344
aI26772
aI30869
aI51350
aI51351
aI18584
aI51353
aI26782
aI50885
aI51361
aI51362
aI51363
aI30884
aI30885
aI18602
aI26795
aI22701
aI30408
aI51379
aI51380
aI30901
aI50890
aI24949
aI51395
aI51396
aI51397
aI51398
aI18632
aI51407
aI51408
aI18641
aI51413
aI51414
aI26843
aI51420
aI51421
aI22754
aI49531
aI26855
aI26856
aI51433
aI51434
aI22763
aI18668
aI22767
aI26867
aI51445
aI51449
aI30971
aI26882
aI26883
aI51460
aI51461
aI26890
aI51475
aI51478
aI50905
aI26906
aI51483
aI18719
aI30427
aI51493
aI51494
aI51498
aI51499
aI51508
aI51509
aI26936
aI22239
aI51518
aI51519
aI18753
aI6468
aI14665
aI51530
aI26955
aI26956
aI51533
aI51534
aI29069
aI18768
aI22866
aI22867
aI22869
aI26966
aI26967
aI26968
aI51545
aI51546
aI22875
aI22876
aI51549
aI51550
aI22881
aI18786
aI22890
aI22892
aI26989
aI22895
aI18800
aI22897
aI51570
aI51571
aI51574
aI18807
aI51576
aI18814
aI18817
aI51588
aI51589
aI51596
aI51597
aI18831
aI51603
aI51605
aI51609
aI51610
aI18846
aI51615
aI51616
aI10662
aI51623
aI18857
aI27053
aI22958
aI22966
aI22967
aI2488
aI22513
aI31168
aI51650
aI51651
aI51656
aI51657
aI2509
aI51662
aI6903
aI27089
aI51668
aI22997
aI51681
aI51682
aI51622
aI27110
aI31207
aI51688
aI50940
aI18855
aI31215
aI51699
aI23028
aI51712
aI51713
aI18949
aI27143
aI51726
aI51727
aI51735
aI51736
aI30468
aI51740
aI51741
aI51751
aI51752
aI51758
aI51759
aI23091
aI31286
aI31287
aI19000
aI6714
aI23099
aI6717
aI23102
aI23103
aI23104
aI51781
aI51782
aI19027
aI19029
aI51799
aI51801
aI51804
aI51805
aI35425
aI51810
aI51814
aI23146
aI23147
aI23148
aI23149
aI51822
aI51823
aI27248
aI23153
aI23159
aI23160
aI23161
aI23162
aI19067
aI23164
aI51842
aI19076
aI51845
aI51852
aI51854
aI51855
aI23185
aI19090
aI39572
aI16457
aI23194
aI51867
aI51868
aI23197
aI23198
aI30491
aI19111
aI23210
aI30493
aI23232
aI19141
aI19145
aI10966
aI51663
aI27365
aI19174
aI31469
aI27383
aI24161
aI51669
aI27392
aI27393
aI23301
aI23308
aI31501
aI31516
aI19231
aI23335
aI23337
aI23339
aI24370
aI27444
aI31547
aI27462
aI27464
aI23379
aI46222
aI31583
aI31587
aI27492
aI6630
aI51687
aI31599
aI23408
aI20147
aI27797
aI23426
aI31619
aI23429
aI31626
aI7052
aI23439
aI23443
aI31644
aI31648
aI19362
aI31651
aI19370
aI35759
aI31664
aI31665
aI32587
aI27588
aI31686
aI52167
aI27595
aI31701
aI31703
aI27609
aI31716
aI50566
aI23534
aI27631
aI19445
aI31736
aI27645
aI52228
aI23561
aI23563
aI19471
aI23568
aI27665
aI19474
aI23571
aI19476
aI19478
aI31767
aI31778
aI23588
aI23591
aI23592
aI23599
aI27696
aI25780
aI19515
aI23612
aI24382
aI19526
aI24655
aI27730
aI26292
aI23636
aI31840
aI31841
aI23651
aI52326
aI23657
aI27756
aI23669
aI23678
aI7303
aI23688
aI31893
aI16921
aI31897
aI29809
aI31922
aI23731
aI51768
aI31929
aI19651
aI19660
aI31948
aI23762
aI31956
aI23767
aI31962
aI31979
aI31981
aI23790
aI23791
aI23799
aI23764
aI19709
aI32004
aI19726
aI27921
aI28617
aI19731
aI23831
aI32026
aI32029
aI32032
aI23845
aI32040
aI32041
aI7473
aI32054
aI34420
aI23868
aI11583
aI27968
aI32067
aI23882
aI51767
aI23884
aI32077
aI32078
aI32079
aI23889
aI32088
aI52574
aI32104
aI32108
aI51773
aI23920
aI51774
aI23928
aI23929
aI23930
aI23931
aI32124
aI28030
aI28031
aI32131
aI32133
aI32134
aI28045
aI28047
aI28048
aI32149
aI32150
aI3479
aI23960
aI32154
aI28062
aI28063
aI32162
aI11696
aI32181
aI51809
aI24005
aI28111
aI32208
aI32209
aI32212
aI28118
aI28119
aI49901
aI43041
aI32230
aI42236
aI22623
aI32237
aI51112
aI32243
aI24054
aI18109
aI19963
aI28156
aI24064
aI32272
aI46339
aI24091
aI49754
aI24101
aI24104
aI31324
aI41565
aI24118
aI28215
aI56889
aI24122
aI32317
aI32321
aI24135
aI32339
aI24149
aI24150
aI24151
aI32344
aI32346
aI32347
aI11870
aI32351
aI32353
aI24166
aI32359
aI32360
aI32584
aI24180
aI24187
aI24189
aI24192
aI24196
aI24198
aI51137
aI32395
aI32398
aI20121
aI24221
aI51824
aI20132
aI32427
aI41586
aI49779
aI32436
aI24246
aI24247
aI28346
aI32447
aI51832
aI24274
aI24275
aI24276
aI24277
aI24278
aI51833
aI24282
aI19066
aI24290
aI31355
aI32486
aI24302
aI48880
aI32498
aI20212
aI32522
aI28437
aI28438
aI51844
aI32541
aI29317
aI28450
aI28451
aI28453
aI32551
aI32562
aI32563
aI24375
aI24543
aI24380
aI32574
aI32579
aI28486
aI24392
aI24395
aI24397
aI24399
aI32592
aI31364
aI51171
aI24418
aI28515
aI28516
aI32613
aI28518
aI28647
aI24436
aI28535
aI24955
aI24444
aI32637
aI28543
aI23872
aI12163
aI29623
aI28554
aI32651
aI32654
aI32657
aI8086
aI32664
aI32665
aI51866
aI51184
aI32676
aI28583
aI32683
aI32684
aI24495
aI32688
aI19102
aI32696
aI32697
aI28608
aI32705
aI32706
aI24517
aI24521
aI32759
aI24529
aI28628
aI32734
aI32735
aI32737
aI28643
aI28644
aI28645
aI28646
aI43235
aI28650
aI32748
aI24558
aI24566
aI24567
aI40953
aI40954
aI22527
aI32764
atp4
Rp5
sS'Short Stories'
p6
g2
((lp7
tp8
Rp9
sS"Children's Literature"
p10
g2
((lp11
I9216
aI9217
aI9218
aI9219
aI9220
aI25609
aI19466
aI19467
aI12
aI13
aI16
aI25617
aI19
aI5141
aI518
aI22566
aI14375
aI9256
aI9257
aI9258
aI13355
aI45
aI46
aI47
aI19505
aI51
aI54
aI1033
aI19514
aI25610
aI11
aI18614
aI22604
aI3149
aI7865
aI9482
aI10335
aI18531
aI23661
aI25611
aI113
aI19573
aI19575
aI120
aI19576
aI20606
aI5312
aI1154
aI146
aI24772
aI721
aI15727
aI16540
aI15521
aI163
aI9383
aI2226
aI4979
aI19637
aI5302
aI5303
aI5304
aI19644
aI19648
aI1217
aI13506
aI10436
aI3282
aI5340
aI5341
aI5342
aI5343
aI225
aI10466
aI5347
aI22225
aI5352
aI9255
aI6380
aI8574
aI41
aI3796
aI1278
aI7425
aI2306
aI4356
aI4357
aI4358
aI19722
aI2315
aI271
aI6418
aI4378
aI289
aI14627
aI10540
aI20781
aI16686
aI24286
aI20795
aI316
aI23869
aI23871
aI6471
aI1354
aI55
aI12630
aI1375
aI17772
aI1391
aI15592
aI14710
aI18811
aI3454
aI384
aI2435
aI236
aI13707
aI14732
aI20877
aI19859
aI1430
aI21914
aI4513
aI419
aI420
aI421
aI1448
aI3499
aI21935
aI436
aI15798
aI2493
aI460
aI3536
aI24022
aI3492
aI479
aI5601
aI485
aI486
aI21994
aI11757
aI5615
aI496
aI498
aI24053
aI503
aI508
aI2557
aI5632
aI24065
aI514
aI517
aI22022
aI519
aI520
aI21015
aI5660
aI544
aI557
aI19002
aI7434
aI4670
aI11860
aI7766
aI19033
aI4698
aI15976
aI14958
aI957
aI640
aI641
aI19079
aI11915
aI19092
aI18077
aI5791
aI2726
aI17069
aI16052
aI25545
aI697
aI708
aI709
aI5830
aI5834
aI5835
aI10360
aI2770
aI3795
aI5844
aI5846
aI22234
aI2781
aI3806
aI4560
aI2786
aI2787
aI2788
aI18156
aI2804
aI16121
aI770
aI5420
aI778
aI794
aI1825
aI8994
aI8995
aI14128
aI15168
aI836
aI837
aI1867
aI1868
aI848
aI1874
aI17250
aI24430
aI9075
aI4980
aI9080
aI20351
aI16259
aI902
aI19337
aI24459
aI1937
aI25496
aI10142
aI19360
aI17314
aI11171
aI25519
aI955
aI956
aI7498
aI501
aI960
aI961
aI6987
aI5110
aI20425
aI976
aI3027
aI25564
aI19450
aI678
aI8188
aI25581
aI9201
aI9202
aI17396
aI9205
aI9206
aI9207
aI9208
aI9209
aI9210
aI9211
aI9212
aI9213
aI9214
aI9215
atp12
Rp13
s.